; Function Attrs: null_pointer_is_valid sspstrong uwtable
define internal void @capture_column_reset_cb(ptr noundef readonly captures(none) %0) #1 {
  %2 = getelementptr inbounds nuw i8, ptr %0, i64 40
  %3 = load ptr, ptr %2, align 8
  %4 = load ptr, ptr %3, align 8
  tail call void @g_list_free_full(ptr noundef %4, ptr noundef nonnull @g_free)
  %5 = getelementptr inbounds nuw i8, ptr %0, i64 56
  %.010 = load ptr, ptr %5, align 8
  %.not11 = icmp eq ptr %.010, null
  br i1 %.not11, label %._crit_edge, label %.lr.ph

.lr.ph:                                           ; preds = %1, %.lr.ph
  %.013 = phi ptr [ %.0, %.lr.ph ], [ %.010, %1 ]
  %.0912 = phi ptr [ %8, %.lr.ph ], [ null, %1 ]
  %6 = load ptr, ptr %.013, align 8
  %7 = tail call noalias ptr @g_strdup(ptr noundef %6)
  %8 = tail call ptr @g_list_append(ptr noundef %.0912, ptr noundef %7)
  %9 = getelementptr inbounds nuw i8, ptr %.013, i64 8
  %.0 = load ptr, ptr %9, align 8
  %.not = icmp eq ptr %.0, null
  br i1 %.not, label %._crit_edge, label %.lr.ph, !llvm.loop !54

._crit_edge:                                      ; preds = %.lr.ph, %1
  %.09.lcssa = phi ptr [ null, %1 ], [ %8, %.lr.ph ]
  %10 = load ptr, ptr %2, align 8
  store ptr %.09.lcssa, ptr %10, align 8
  ret void
}